; Function Attrs: mustprogress nounwind uwtable
define dso_local i32 @stbi_zlib_decode_noheader_buffer(ptr noundef %0, i32 noundef %1, ptr noundef %2, i32 noundef %3) local_unnamed_addr #12 {
  %5 = alloca %struct.stbi__zbuf, align 8
  call void @llvm.lifetime.start.p0(i64 4096, ptr nonnull %5) #35
  store ptr %2, ptr %5, align 8, !tbaa !169
  %6 = sext i32 %3 to i64
  %7 = getelementptr inbounds i8, ptr %2, i64 %6
  %8 = getelementptr inbounds nuw i8, ptr %5, i64 8
  store ptr %7, ptr %8, align 8, !tbaa !172
  %9 = call fastcc noundef i32 @_ZL13stbi__do_zlibP10stbi__zbufPciii(ptr noundef %5, ptr noundef %0, i32 noundef %1, i32 noundef 0, i32 noundef 0)
  %.not = icmp eq i32 %9, 0
  %10 = getelementptr inbounds nuw i8, ptr %5, i64 24
  %11 = load ptr, ptr %10, align 8
  %12 = getelementptr inbounds nuw i8, ptr %5, i64 32
  %13 = load ptr, ptr %12, align 8
  %14 = ptrtoint ptr %11 to i64
  %15 = ptrtoint ptr %13 to i64
  %16 = sub i64 %14, %15
  %17 = trunc i64 %16 to i32
  %.0 = select i1 %.not, i32 -1, i32 %17
  call void @llvm.lifetime.end.p0(i64 4096, ptr nonnull %5) #35
  ret i32 %.0
}